; Function Attrs: mustprogress uwtable
define hidden noundef zeroext i1 @_ZN4cvc58internal6theory2ff8isFfTermERKNS0_12NodeTemplateILb1EEERKNS0_6FfSizeE(ptr noundef nonnull align 8 dereferenceable(8) %0, ptr noundef nonnull align 8 dereferenceable(16) %1) local_unnamed_addr #3 personality ptr @__gxx_personality_v0 {
  %3 = alloca %"class.cvc5::internal::TypeNode", align 8
  %4 = alloca %"class.cvc5::internal::TypeNode", align 8
  call void @llvm.lifetime.start.p0(i64 8, ptr nonnull %3) #19
  call void @_ZNK4cvc58internal12NodeTemplateILb1EE7getTypeEb(ptr dead_on_unwind nonnull writable sret(%"class.cvc5::internal::TypeNode") align 8 %3, ptr noundef nonnull align 8 dereferenceable(8) %0, i1 noundef zeroext false)
  %5 = load ptr, ptr %3, align 8, !tbaa !16
  %6 = getelementptr inbounds nuw i8, ptr %5, i64 8
  %7 = load i64, ptr %6, align 8
  %8 = and i64 %7, 1023
  %9 = icmp eq i64 %8, 151
  br i1 %9, label %10, label %.critedge

10:                                               ; preds = %2
  call void @llvm.lifetime.start.p0(i64 8, ptr nonnull %4) #19
  invoke void @_ZNK4cvc58internal12NodeTemplateILb1EE7getTypeEb(ptr dead_on_unwind nonnull writable sret(%"class.cvc5::internal::TypeNode") align 8 %4, ptr noundef nonnull align 8 dereferenceable(8) %0, i1 noundef zeroext false)
          to label %11 unwind label %43

11:                                               ; preds = %10
  %12 = invoke noundef nonnull align 8 dereferenceable(16) ptr @_ZNK4cvc58internal8TypeNode9getFfSizeEv(ptr noundef nonnull align 8 dereferenceable(8) %4)
          to label %13 unwind label %45

13:                                               ; preds = %11
  %14 = invoke noundef zeroext i1 @_ZNK4cvc58internal7IntegereqERKS1_(ptr noundef nonnull align 8 dereferenceable(16) %12, ptr noundef nonnull align 8 dereferenceable(16) %1)
          to label %15 unwind label %45

15:                                               ; preds = %13
  %16 = load ptr, ptr %4, align 8, !tbaa !16
  %17 = load i64, ptr %16, align 8
  %18 = and i64 %17, 1152920405095219200
  %.not.i.i = icmp eq i64 %18, 1152920405095219200
  br i1 %.not.i.i, label %_ZN4cvc58internal8TypeNodeD2Ev.exit, label %19, !prof !15

19:                                               ; preds = %15
  %20 = add i64 %17, 1152920405095219200
  %21 = and i64 %20, 1152920405095219200
  %22 = and i64 %17, -1152920405095219201
  %23 = or disjoint i64 %21, %22
  store i64 %23, ptr %16, align 8
  %24 = icmp eq i64 %21, 0
  br i1 %24, label %25, label %_ZN4cvc58internal8TypeNodeD2Ev.exit, !prof !15

25:                                               ; preds = %19
  invoke void @_ZN4cvc58internal4expr9NodeValue15markForDeletionEv(ptr noundef nonnull align 8 dereferenceable(24) %16)
          to label %_ZN4cvc58internal8TypeNodeD2Ev.exit unwind label %26

26:                                               ; preds = %25
  %27 = landingpad { ptr, i32 }
          catch ptr null
  %28 = extractvalue { ptr, i32 } %27, 0
  call void @__clang_call_terminate(ptr %28) #20
  unreachable

_ZN4cvc58internal8TypeNodeD2Ev.exit:              ; preds = %15, %19, %25
  call void @llvm.lifetime.end.p0(i64 8, ptr nonnull %4) #19
  %.pre = load ptr, ptr %3, align 8, !tbaa !16
  br label %.critedge

.critedge:                                        ; preds = %2, %_ZN4cvc58internal8TypeNodeD2Ev.exit
  %29 = phi ptr [ %.pre, %_ZN4cvc58internal8TypeNodeD2Ev.exit ], [ %5, %2 ]
  %30 = phi i1 [ %14, %_ZN4cvc58internal8TypeNodeD2Ev.exit ], [ false, %2 ]
  %31 = load i64, ptr %29, align 8
  %32 = and i64 %31, 1152920405095219200
  %.not.i.i15 = icmp eq i64 %32, 1152920405095219200
  br i1 %.not.i.i15, label %_ZN4cvc58internal8TypeNodeD2Ev.exit16, label %33, !prof !15

33:                                               ; preds = %.critedge
  %34 = add i64 %31, 1152920405095219200
  %35 = and i64 %34, 1152920405095219200
  %36 = and i64 %31, -1152920405095219201
  %37 = or disjoint i64 %35, %36
  store i64 %37, ptr %29, align 8
  %38 = icmp eq i64 %35, 0
  br i1 %38, label %39, label %_ZN4cvc58internal8TypeNodeD2Ev.exit16, !prof !15

39:                                               ; preds = %33
  invoke void @_ZN4cvc58internal4expr9NodeValue15markForDeletionEv(ptr noundef nonnull align 8 dereferenceable(24) %29)
          to label %_ZN4cvc58internal8TypeNodeD2Ev.exit16 unwind label %40

40:                                               ; preds = %39
  %41 = landingpad { ptr, i32 }
          catch ptr null
  %42 = extractvalue { ptr, i32 } %41, 0
  call void @__clang_call_terminate(ptr %42) #20
  unreachable

_ZN4cvc58internal8TypeNodeD2Ev.exit16:            ; preds = %.critedge, %33, %39
  call void @llvm.lifetime.end.p0(i64 8, ptr nonnull %3) #19
  ret i1 %30

43:                                               ; preds = %10
  %44 = landingpad { ptr, i32 }
          cleanup
  br label %47

45:                                               ; preds = %13, %11
  %46 = landingpad { ptr, i32 }
          cleanup
  call void @_ZN4cvc58internal8TypeNodeD2Ev(ptr noundef nonnull align 8 dereferenceable(8) %4) #19
  br label %47

47:                                               ; preds = %43, %45
  %.pn = phi { ptr, i32 } [ %46, %45 ], [ %44, %43 ]
  call void @llvm.lifetime.end.p0(i64 8, ptr nonnull %4) #19
  call void @_ZN4cvc58internal8TypeNodeD2Ev(ptr noundef nonnull align 8 dereferenceable(8) %3) #19
  call void @llvm.lifetime.end.p0(i64 8, ptr nonnull %3) #19
  resume { ptr, i32 } %.pn
}